; Function Attrs: mustprogress nounwind uwtable
define dso_local void @_ZNK4llvm8DWARFDie4findENS_5dwarf9AttributeE(ptr dead_on_unwind noalias writable sret(%"class.std::optional") align 8 %0, ptr noundef nonnull readonly align 8 captures(none) dereferenceable(16) %1, i16 noundef zeroext %2) local_unnamed_addr #0 align 2 {
  %4 = load ptr, ptr %1, align 8
  %.not.i = icmp ne ptr %4, null
  %5 = getelementptr inbounds nuw i8, ptr %1, i64 8
  %6 = load ptr, ptr %5, align 8
  %7 = icmp ne ptr %6, null
  %8 = select i1 %.not.i, i1 %7, i1 false
  br i1 %8, label %11, label %9

9:                                                ; preds = %3
  %10 = getelementptr inbounds nuw i8, ptr %0, i64 48
  store i8 0, ptr %10, align 8
  br label %18

11:                                               ; preds = %3
  %12 = getelementptr inbounds nuw i8, ptr %6, i64 16
  %13 = load ptr, ptr %12, align 8
  %.not = icmp eq ptr %13, null
  br i1 %.not, label %16, label %14

14:                                               ; preds = %11
  %15 = load i64, ptr %6, align 8
  tail call void @_ZNK4llvm28DWARFAbbreviationDeclaration17getAttributeValueEmNS_5dwarf9AttributeERKNS_9DWARFUnitE(ptr dead_on_unwind writable sret(%"class.std::optional") align 8 %0, ptr noundef nonnull align 8 dereferenceable(160) %13, i64 noundef %15, i16 noundef zeroext %2, ptr noundef nonnull align 8 dereferenceable(448) %4) #19
  br label %18

16:                                               ; preds = %11
  %17 = getelementptr inbounds nuw i8, ptr %0, i64 48
  store i8 0, ptr %17, align 8
  br label %18

18:                                               ; preds = %16, %14, %9
  ret void
}